target datalayout = "e-m:e-p270:32:32-p271:32:32-p272:64:64-i64:64-i128:128-f80:128-n8:16:32:64-S128"
target triple = "x86_64-pc-linux-gnu"

%"class.std::__cxx11::basic_string" = type { %"struct.std::__cxx11::basic_string<char>::_Alloc_hider", i64, %union.anon }
%"struct.std::__cxx11::basic_string<char>::_Alloc_hider" = type { ptr }
%union.anon = type { i64, [8 x i8] }
%"struct.rocksdb::experimental::SstQueryFilterConfigs" = type { %"class.std::vector.420", %"class.std::shared_ptr.425" }
%"class.std::vector.420" = type { %"struct.std::_Vector_base.421" }
%"struct.std::_Vector_base.421" = type { %"struct.std::_Vector_base<std::shared_ptr<rocksdb::experimental::SstQueryFilterConfig>, std::allocator<std::shared_ptr<rocksdb::experimental::SstQueryFilterConfig>>>::_Vector_impl" }
%"struct.std::_Vector_base<std::shared_ptr<rocksdb::experimental::SstQueryFilterConfig>, std::allocator<std::shared_ptr<rocksdb::experimental::SstQueryFilterConfig>>>::_Vector_impl" = type { %"struct.std::_Vector_base<std::shared_ptr<rocksdb::experimental::SstQueryFilterConfig>, std::allocator<std::shared_ptr<rocksdb::experimental::SstQueryFilterConfig>>>::_Vector_impl_data" }
%"struct.std::_Vector_base<std::shared_ptr<rocksdb::experimental::SstQueryFilterConfig>, std::allocator<std::shared_ptr<rocksdb::experimental::SstQueryFilterConfig>>>::_Vector_impl_data" = type { ptr, ptr, ptr }
%"class.std::shared_ptr.425" = type { %"class.std::__shared_ptr.426" }
%"class.std::__shared_ptr.426" = type { ptr, %"class.std::__shared_count" }
%"class.std::__shared_count" = type { ptr }
%"class.rocksdb::Slice" = type { ptr, i64 }
%"class.std::function" = type { %"class.std::_Function_base", ptr }
%"class.std::_Function_base" = type { %"union.std::_Any_data", ptr }
%"union.std::_Any_data" = type { %"union.std::_Nocopy_types" }
%"union.std::_Nocopy_types" = type { { i64, i64 } }
%"struct.std::__detail::_Hash_node_base" = type { ptr }
%"struct.std::__detail::_Prime_rehash_policy" = type { float, i64 }
%"class.rocksdb::experimental::(anonymous namespace)::SstQueryFilterConfigsManagerImpl" = type { %"class.rocksdb::experimental::SstQueryFilterConfigsManager", %"class.std::unordered_map.481", %"class.std::unordered_map.495", i32, i32 }
%"class.rocksdb::experimental::SstQueryFilterConfigsManager" = type { ptr, %"class.std::enable_shared_from_this" }
%"class.std::enable_shared_from_this" = type { %"class.std::weak_ptr" }
%"class.std::weak_ptr" = type { %"class.std::__weak_ptr" }
%"class.std::__weak_ptr" = type { ptr, %"class.std::__weak_count" }
%"class.std::__weak_count" = type { ptr }
%"class.std::unordered_map.481" = type { %"class.std::_Hashtable.482" }
%"class.std::_Hashtable.482" = type { ptr, i64, %"struct.std::__detail::_Hash_node_base", i64, %"struct.std::__detail::_Prime_rehash_policy", ptr }
%"class.std::unordered_map.495" = type { %"class.std::_Hashtable.496" }
%"class.std::_Hashtable.496" = type { ptr, i64, %"struct.std::__detail::_Hash_node_base", i64, %"struct.std::__detail::_Prime_rehash_policy", ptr }
%"class.std::shared_ptr.789" = type { %"class.std::__shared_ptr.790" }
%"class.std::__shared_ptr.790" = type { ptr, %"class.std::__shared_count" }
%"struct.rocksdb::experimental::(anonymous namespace)::SstQueryFilterConfigsManagerImpl::MyFactory" = type <{ %"class.rocksdb::experimental::SstQueryFilterConfigsManager::Factory", %"class.std::shared_ptr.789", ptr, %"class.std::__cxx11::basic_string", %"class.rocksdb::RelaxedAtomic", [4 x i8] }>
%"class.rocksdb::experimental::SstQueryFilterConfigsManager::Factory" = type { %"class.rocksdb::TablePropertiesCollectorFactory" }
%"class.rocksdb::TablePropertiesCollectorFactory" = type { %"class.rocksdb::Customizable" }
%"class.rocksdb::Customizable" = type { %"class.rocksdb::Configurable" }
%"class.rocksdb::Configurable" = type { ptr, %"class.std::vector.21" }
%"class.std::vector.21" = type { %"struct.std::_Vector_base.22" }
%"struct.std::_Vector_base.22" = type { %"struct.std::_Vector_base<rocksdb::Configurable::RegisteredOptions, std::allocator<rocksdb::Configurable::RegisteredOptions>>::_Vector_impl" }
%"struct.std::_Vector_base<rocksdb::Configurable::RegisteredOptions, std::allocator<rocksdb::Configurable::RegisteredOptions>>::_Vector_impl" = type { %"struct.std::_Vector_base<rocksdb::Configurable::RegisteredOptions, std::allocator<rocksdb::Configurable::RegisteredOptions>>::_Vector_impl_data" }
%"struct.std::_Vector_base<rocksdb::Configurable::RegisteredOptions, std::allocator<rocksdb::Configurable::RegisteredOptions>>::_Vector_impl_data" = type { ptr, ptr, ptr }
%"class.rocksdb::RelaxedAtomic" = type { %"struct.std::atomic.795" }
%"struct.std::atomic.795" = type { %"struct.std::__atomic_base.796" }
%"struct.std::__atomic_base.796" = type { i32 }
%class.anon.845 = type { %"struct.rocksdb::experimental::(anonymous namespace)::SstQueryFilterConfigsManagerImpl::RangeQueryFilterReader" }
%"struct.rocksdb::experimental::(anonymous namespace)::SstQueryFilterConfigsManagerImpl::RangeQueryFilterReader" = type { %"class.rocksdb::Slice", %"class.rocksdb::Slice", ptr, ptr }

; Function Attrs: mustprogress nounwind uwtable
define linkonce_odr noundef ptr @_ZNSt9_Any_data9_M_accessEv(ptr noundef nonnull align 8 dereferenceable(16) %0) #3 comdat align 2 {
  %2 = alloca ptr, align 8
  store ptr %0, ptr %2, align 8, !tbaa !2476
  %3 = load ptr, ptr %2, align 8
  %4 = getelementptr inbounds [16 x i8], ptr %3, i64 0, i64 0
  ret ptr %4
}

; Function Attrs: mustprogress nounwind uwtable
define internal noundef nonnull align 8 dereferenceable(8) ptr @_ZNSt9_Any_data9_M_accessIPZNK7rocksdb12experimental12_GLOBAL__N_132SstQueryFilterConfigsManagerImpl9MyFactory27GetTableFilterForRangeQueryENS1_5SliceES6_EUlRKNS1_15TablePropertiesEE_EERT_v(ptr noundef nonnull align 8 dereferenceable(16) %0) #3 align 2 {
  %2 = alloca ptr, align 8
  store ptr %0, ptr %2, align 8, !tbaa !2476
  %3 = load ptr, ptr %2, align 8
  %4 = call noundef ptr @_ZNSt9_Any_data9_M_accessEv(ptr noundef nonnull align 8 dereferenceable(16) %3) #4
  ret ptr %4
}

; Function Attrs: noinline noreturn nounwind uwtable
define linkonce_odr hidden void @__clang_call_terminate(ptr noundef %0) #14 comdat {
  %2 = call ptr @__cxa_begin_catch(ptr %0) #4
  call void @_ZSt9terminatev() #22
  unreachable
}

; Function Attrs: mustprogress uwtable
define internal void @_ZNSt14_Function_base13_Base_managerIZNK7rocksdb12experimental12_GLOBAL__N_132SstQueryFilterConfigsManagerImpl9MyFactory27GetTableFilterForRangeQueryENS1_5SliceES6_EUlRKNS1_15TablePropertiesEE_E9_M_createISA_EEvRSt9_Any_dataOT_St17integral_constantIbLb0EE(ptr noundef nonnull align 8 dereferenceable(16) %0, ptr noundef nonnull align 8 dereferenceable(48) %1) #5 align 2 {
  %3 = alloca ptr, align 8
  %4 = alloca ptr, align 8
  store ptr %0, ptr %3, align 8, !tbaa !2476
  store ptr %1, ptr %4, align 8, !tbaa !36
  %5 = call noalias noundef nonnull ptr @_Znwm(i64 noundef 48) #25
  %6 = load ptr, ptr %4, align 8, !tbaa !36
  call void @llvm.memcpy.p0.p0.i64(ptr align 16 %5, ptr align 8 %6, i64 48, i1 false), !tbaa.struct !2482
  %7 = load ptr, ptr %3, align 8, !tbaa !2476
  %8 = call noundef nonnull align 8 dereferenceable(8) ptr @_ZNSt9_Any_data9_M_accessIPZNK7rocksdb12experimental12_GLOBAL__N_132SstQueryFilterConfigsManagerImpl9MyFactory27GetTableFilterForRangeQueryENS1_5SliceES6_EUlRKNS1_15TablePropertiesEE_EERT_v(ptr noundef nonnull align 8 dereferenceable(16) %7) #4
  store ptr %5, ptr %8, align 8, !tbaa !36
  ret void
}

; Function Attrs: mustprogress nounwind uwtable
define internal noundef ptr @_ZNKSt12__shared_ptrIKN7rocksdb12experimental12_GLOBAL__N_132SstQueryFilterConfigsManagerImplELN9__gnu_cxx12_Lock_policyE2EE3getEv(ptr noundef nonnull align 8 dereferenceable(16) %0) #3 align 2 {
  %2 = alloca ptr, align 8
  store ptr %0, ptr %2, align 8, !tbaa !2237
  %3 = load ptr, ptr %2, align 8
  %4 = getelementptr inbounds nuw %"class.std::__shared_ptr.790", ptr %3, i32 0, i32 0
  %5 = load ptr, ptr %4, align 8, !tbaa !2266
  ret ptr %5
}

; Function Attrs: mustprogress nounwind uwtable
define linkonce_odr void @_ZNSt14_Function_baseD2Ev(ptr noundef nonnull align 8 dereferenceable(24) %0) unnamed_addr #3 comdat align 2 personality ptr @__gxx_personality_v0 {
  %2 = alloca ptr, align 8
  store ptr %0, ptr %2, align 8, !tbaa !929
  %3 = load ptr, ptr %2, align 8
  %4 = getelementptr inbounds nuw %"class.std::_Function_base", ptr %3, i32 0, i32 1
  %5 = load ptr, ptr %4, align 8, !tbaa !931
  %6 = icmp ne ptr %5, null
  br i1 %6, label %7, label %14

7:                                                ; preds = %1
  %8 = getelementptr inbounds nuw %"class.std::_Function_base", ptr %3, i32 0, i32 1
  %9 = load ptr, ptr %8, align 8, !tbaa !931
  %10 = getelementptr inbounds nuw %"class.std::_Function_base", ptr %3, i32 0, i32 0
  %11 = getelementptr inbounds nuw %"class.std::_Function_base", ptr %3, i32 0, i32 0
  %12 = invoke noundef zeroext i1 %9(ptr noundef nonnull align 8 dereferenceable(16) %10, ptr noundef nonnull align 8 dereferenceable(16) %11, i32 noundef 3)
          to label %13 unwind label %15

13:                                               ; preds = %7
  br label %14

14:                                               ; preds = %13, %1
  ret void

15:                                               ; preds = %7
  %16 = landingpad { ptr, i32 }
          catch ptr null
  %17 = extractvalue { ptr, i32 } %16, 0
  call void @__clang_call_terminate(ptr %17) #22
  unreachable
}

; Function Attrs: mustprogress uwtable
define internal void @_ZNSt14_Function_base13_Base_managerIZNK7rocksdb12experimental12_GLOBAL__N_132SstQueryFilterConfigsManagerImpl9MyFactory27GetTableFilterForRangeQueryENS1_5SliceES6_EUlRKNS1_15TablePropertiesEE_E15_M_init_functorISA_EEvRSt9_Any_dataOT_(ptr noundef nonnull align 8 dereferenceable(16) %0, ptr noundef nonnull align 8 dereferenceable(48) %1) #5 align 2 {
  %3 = alloca ptr, align 8
  %4 = alloca ptr, align 8
  store ptr %0, ptr %3, align 8, !tbaa !2476
  store ptr %1, ptr %4, align 8, !tbaa !36
  %5 = load ptr, ptr %3, align 8, !tbaa !2476
  %6 = load ptr, ptr %4, align 8, !tbaa !36
  call void @_ZNSt14_Function_base13_Base_managerIZNK7rocksdb12experimental12_GLOBAL__N_132SstQueryFilterConfigsManagerImpl9MyFactory27GetTableFilterForRangeQueryENS1_5SliceES6_EUlRKNS1_15TablePropertiesEE_E9_M_createISA_EEvRSt9_Any_dataOT_St17integral_constantIbLb0EE(ptr noundef nonnull align 8 dereferenceable(16) %5, ptr noundef nonnull align 8 dereferenceable(48) %6)
  ret void
}

; Function Attrs: mustprogress nounwind uwtable
define internal noundef zeroext i1 @_ZNSt14_Function_base13_Base_managerIZNK7rocksdb12experimental12_GLOBAL__N_132SstQueryFilterConfigsManagerImpl9MyFactory27GetTableFilterForRangeQueryENS1_5SliceES6_EUlRKNS1_15TablePropertiesEE_E21_M_not_empty_functionISA_EEbRKT_(ptr noundef nonnull align 8 dereferenceable(48) %0) #3 align 2 {
  %2 = alloca ptr, align 8
  store ptr %0, ptr %2, align 8, !tbaa !36
  ret i1 true
}

; Function Attrs: mustprogress nounwind uwtable
define linkonce_odr void @_ZNSt14_Function_baseC2Ev(ptr noundef nonnull align 8 dereferenceable(24) %0) unnamed_addr #3 comdat align 2 {
  %2 = alloca ptr, align 8
  store ptr %0, ptr %2, align 8, !tbaa !929
  %3 = load ptr, ptr %2, align 8
  %4 = getelementptr inbounds nuw %"class.std::_Function_base", ptr %3, i32 0, i32 0
  store ptr null, ptr %4, align 8, !tbaa !117
  %5 = getelementptr inbounds nuw %"class.std::_Function_base", ptr %3, i32 0, i32 1
  store ptr null, ptr %5, align 8, !tbaa !931
  ret void
}

; Function Attrs: mustprogress nounwind uwtable
define internal noundef ptr @_ZNKSt19__shared_ptr_accessIKN7rocksdb12experimental12_GLOBAL__N_132SstQueryFilterConfigsManagerImplELN9__gnu_cxx12_Lock_policyE2ELb0ELb0EE6_M_getEv(ptr noundef nonnull align 1 dereferenceable(1) %0) #3 align 2 {
  %2 = alloca ptr, align 8
  store ptr %0, ptr %2, align 8, !tbaa !2270
  %3 = load ptr, ptr %2, align 8
  %4 = call noundef ptr @_ZNKSt12__shared_ptrIKN7rocksdb12experimental12_GLOBAL__N_132SstQueryFilterConfigsManagerImplELN9__gnu_cxx12_Lock_policyE2EE3getEv(ptr noundef nonnull align 8 dereferenceable(16) %3) #4
  ret ptr %4
}

; Function Attrs: mustprogress uwtable
define internal void @_ZNSt8functionIFbRKN7rocksdb15TablePropertiesEEEC2IZNKS0_12experimental12_GLOBAL__N_132SstQueryFilterConfigsManagerImpl9MyFactory27GetTableFilterForRangeQueryENS0_5SliceESB_EUlS3_E_vEEOT_(ptr noundef nonnull align 8 dereferenceable(32) %0, ptr noundef nonnull align 8 dereferenceable(48) %1) unnamed_addr #5 align 2 personality ptr @__gxx_personality_v0 {
  %3 = alloca ptr, align 8
  %4 = alloca ptr, align 8
  %5 = alloca ptr, align 8
  %6 = alloca i32, align 4
  store ptr %0, ptr %3, align 8, !tbaa !914
  store ptr %1, ptr %4, align 8, !tbaa !36
  %7 = load ptr, ptr %3, align 8
  %8 = getelementptr inbounds i8, ptr %7, i64 0
  call void @llvm.memset.p0.i64(ptr align 8 %8, i8 0, i64 24, i1 false)
  call void @_ZNSt14_Function_baseC2Ev(ptr noundef nonnull align 8 dereferenceable(24) %7) #4
  %9 = getelementptr inbounds nuw %"class.std::function", ptr %7, i32 0, i32 1
  store ptr null, ptr %9, align 8, !tbaa !916
  %10 = load ptr, ptr %4, align 8, !tbaa !36
  %11 = call noundef zeroext i1 @_ZNSt14_Function_base13_Base_managerIZNK7rocksdb12experimental12_GLOBAL__N_132SstQueryFilterConfigsManagerImpl9MyFactory27GetTableFilterForRangeQueryENS1_5SliceES6_EUlRKNS1_15TablePropertiesEE_E21_M_not_empty_functionISA_EEbRKT_(ptr noundef nonnull align 8 dereferenceable(48) %10) #4
  br i1 %11, label %12, label %22

12:                                               ; preds = %2
  %13 = getelementptr inbounds nuw %"class.std::_Function_base", ptr %7, i32 0, i32 0
  %14 = load ptr, ptr %4, align 8, !tbaa !36
  invoke void @_ZNSt14_Function_base13_Base_managerIZNK7rocksdb12experimental12_GLOBAL__N_132SstQueryFilterConfigsManagerImpl9MyFactory27GetTableFilterForRangeQueryENS1_5SliceES6_EUlRKNS1_15TablePropertiesEE_E15_M_init_functorISA_EEvRSt9_Any_dataOT_(ptr noundef nonnull align 8 dereferenceable(16) %13, ptr noundef nonnull align 8 dereferenceable(48) %14)
          to label %15 unwind label %18

15:                                               ; preds = %12
  %16 = getelementptr inbounds nuw %"class.std::function", ptr %7, i32 0, i32 1
  store ptr @_ZNSt17_Function_handlerIFbRKN7rocksdb15TablePropertiesEEZNKS0_12experimental12_GLOBAL__N_132SstQueryFilterConfigsManagerImpl9MyFactory27GetTableFilterForRangeQueryENS0_5SliceES9_EUlS3_E_E9_M_invokeERKSt9_Any_dataS3_, ptr %16, align 8, !tbaa !916
  %17 = getelementptr inbounds nuw %"class.std::_Function_base", ptr %7, i32 0, i32 1
  store ptr @_ZNSt17_Function_handlerIFbRKN7rocksdb15TablePropertiesEEZNKS0_12experimental12_GLOBAL__N_132SstQueryFilterConfigsManagerImpl9MyFactory27GetTableFilterForRangeQueryENS0_5SliceES9_EUlS3_E_E10_M_managerERSt9_Any_dataRKSC_St18_Manager_operation, ptr %17, align 8, !tbaa !931
  br label %22

18:                                               ; preds = %12
  %19 = landingpad { ptr, i32 }
          cleanup
  %20 = extractvalue { ptr, i32 } %19, 0
  store ptr %20, ptr %5, align 8
  %21 = extractvalue { ptr, i32 } %19, 1
  store i32 %21, ptr %6, align 4
  call void @_ZNSt14_Function_baseD2Ev(ptr noundef nonnull align 8 dereferenceable(24) %7) #4
  br label %23

22:                                               ; preds = %15, %2
  ret void

23:                                               ; preds = %18
  %24 = load ptr, ptr %5, align 8
  %25 = load i32, ptr %6, align 4
  %26 = insertvalue { ptr, i32 } poison, ptr %24, 0
  %27 = insertvalue { ptr, i32 } %26, i32 %25, 1
  resume { ptr, i32 } %27
}

; Function Attrs: mustprogress nounwind uwtable
define internal noundef ptr @_ZNKSt19__shared_ptr_accessIKN7rocksdb12experimental12_GLOBAL__N_132SstQueryFilterConfigsManagerImplELN9__gnu_cxx12_Lock_policyE2ELb0ELb0EEptEv(ptr noundef nonnull align 1 dereferenceable(1) %0) #3 align 2 {
  %2 = alloca ptr, align 8
  store ptr %0, ptr %2, align 8, !tbaa !2270
  %3 = load ptr, ptr %2, align 8
  %4 = call noundef ptr @_ZNKSt19__shared_ptr_accessIKN7rocksdb12experimental12_GLOBAL__N_132SstQueryFilterConfigsManagerImplELN9__gnu_cxx12_Lock_policyE2ELb0ELb0EE6_M_getEv(ptr noundef nonnull align 1 dereferenceable(1) %3) #4
  ret ptr %4
}

; Function Attrs: mustprogress nounwind uwtable
define linkonce_odr noundef ptr @_ZNKSt12__shared_ptrIKN7rocksdb12experimental20KeySegmentsExtractorELN9__gnu_cxx12_Lock_policyE2EE3getEv(ptr noundef nonnull align 8 dereferenceable(16) %0) #3 comdat align 2 {
  %2 = alloca ptr, align 8
  store ptr %0, ptr %2, align 8, !tbaa !1501
  %3 = load ptr, ptr %2, align 8
  %4 = getelementptr inbounds nuw %"class.std::__shared_ptr.426", ptr %3, i32 0, i32 0
  %5 = load ptr, ptr %4, align 8, !tbaa !1503
  ret ptr %5
}

; Function Attrs: mustprogress uwtable
define internal void @_ZNK7rocksdb12experimental12_GLOBAL__N_132SstQueryFilterConfigsManagerImpl9MyFactory27GetTableFilterForRangeQueryENS_5SliceES4_(ptr dead_on_unwind noalias writable sret(%"class.std::function") align 8 %0, ptr noundef nonnull align 8 dereferenceable(92) %1, ptr %2, i64 %3, ptr %4, i64 %5) unnamed_addr #5 align 2 {
  %7 = alloca ptr, align 8
  %8 = alloca %"class.rocksdb::Slice", align 8
  %9 = alloca %"class.rocksdb::Slice", align 8
  %10 = alloca ptr, align 8
  %11 = alloca %class.anon.845, align 8
  store ptr %0, ptr %7, align 8
  %12 = getelementptr inbounds nuw { ptr, i64 }, ptr %8, i32 0, i32 0
  store ptr %2, ptr %12, align 8
  %13 = getelementptr inbounds nuw { ptr, i64 }, ptr %8, i32 0, i32 1
  store i64 %3, ptr %13, align 8
  %14 = getelementptr inbounds nuw { ptr, i64 }, ptr %9, i32 0, i32 0
  store ptr %4, ptr %14, align 8
  %15 = getelementptr inbounds nuw { ptr, i64 }, ptr %9, i32 0, i32 1
  store i64 %5, ptr %15, align 8
  store ptr %1, ptr %10, align 8, !tbaa !2254
  %16 = load ptr, ptr %10, align 8
  call void @llvm.lifetime.start.p0(i64 48, ptr %11) #4
  %17 = getelementptr inbounds nuw %class.anon.845, ptr %11, i32 0, i32 0
  %18 = getelementptr inbounds nuw %"struct.rocksdb::experimental::(anonymous namespace)::SstQueryFilterConfigsManagerImpl::RangeQueryFilterReader", ptr %17, i32 0, i32 0
  call void @llvm.memcpy.p0.p0.i64(ptr align 8 %18, ptr align 8 %8, i64 16, i1 false), !tbaa.struct !2078
  %19 = getelementptr inbounds nuw %"struct.rocksdb::experimental::(anonymous namespace)::SstQueryFilterConfigsManagerImpl::RangeQueryFilterReader", ptr %17, i32 0, i32 1
  call void @llvm.memcpy.p0.p0.i64(ptr align 8 %19, ptr align 8 %9, i64 16, i1 false), !tbaa.struct !2078
  %20 = getelementptr inbounds nuw %"struct.rocksdb::experimental::(anonymous namespace)::SstQueryFilterConfigsManagerImpl::RangeQueryFilterReader", ptr %17, i32 0, i32 2
  %21 = load ptr, ptr %16, align 8, !tbaa !56
  %22 = getelementptr inbounds ptr, ptr %21, i64 24
  %23 = load ptr, ptr %22, align 8
  %24 = call noundef nonnull align 8 dereferenceable(40) ptr %23(ptr noundef nonnull align 8 dereferenceable(92) %16)
  %25 = getelementptr inbounds nuw %"struct.rocksdb::experimental::SstQueryFilterConfigs", ptr %24, i32 0, i32 1
  %26 = call noundef ptr @_ZNKSt12__shared_ptrIKN7rocksdb12experimental20KeySegmentsExtractorELN9__gnu_cxx12_Lock_policyE2EE3getEv(ptr noundef nonnull align 8 dereferenceable(16) %25) #4
  store ptr %26, ptr %20, align 8, !tbaa !2296
  %27 = getelementptr inbounds nuw %"struct.rocksdb::experimental::(anonymous namespace)::SstQueryFilterConfigsManagerImpl::RangeQueryFilterReader", ptr %17, i32 0, i32 3
  %28 = getelementptr inbounds nuw %"struct.rocksdb::experimental::(anonymous namespace)::SstQueryFilterConfigsManagerImpl::MyFactory", ptr %16, i32 0, i32 1
  %29 = call noundef ptr @_ZNKSt19__shared_ptr_accessIKN7rocksdb12experimental12_GLOBAL__N_132SstQueryFilterConfigsManagerImplELN9__gnu_cxx12_Lock_policyE2ELb0ELb0EEptEv(ptr noundef nonnull align 1 dereferenceable(1) %28) #4
  %30 = getelementptr inbounds nuw %"class.rocksdb::experimental::(anonymous namespace)::SstQueryFilterConfigsManagerImpl", ptr %29, i32 0, i32 2
  store ptr %30, ptr %27, align 8, !tbaa !1529
  call void @_ZNSt8functionIFbRKN7rocksdb15TablePropertiesEEEC2IZNKS0_12experimental12_GLOBAL__N_132SstQueryFilterConfigsManagerImpl9MyFactory27GetTableFilterForRangeQueryENS0_5SliceESB_EUlS3_E_vEEOT_(ptr noundef nonnull align 8 dereferenceable(32) %0, ptr noundef nonnull align 8 dereferenceable(48) %11)
  call void @llvm.lifetime.end.p0(i64 48, ptr %11) #4
  ret void
}