; Function Attrs: mustprogress uwtable
define internal void @_ZNK7rocksdb12experimental12_GLOBAL__N_132SstQueryFilterConfigsManagerImpl9MyFactory27GetTableFilterForRangeQueryENS_5SliceES4_(ptr dead_on_unwind noalias writable writeonly sret(%"class.std::function") align 8 captures(none) initializes((0, 32)) %0, ptr noundef nonnull align 8 dereferenceable(92) %1, ptr %2, i64 %3, ptr %4, i64 %5) unnamed_addr #4 align 2 personality ptr @__gxx_personality_v0 {
  %7 = load ptr, ptr %1, align 8, !tbaa !21
  %8 = getelementptr inbounds nuw i8, ptr %7, i64 192
  %9 = load ptr, ptr %8, align 8
  %10 = tail call noundef nonnull align 8 dereferenceable(40) ptr %9(ptr noundef nonnull align 8 dereferenceable(92) %1)
  %11 = getelementptr inbounds nuw i8, ptr %10, i64 24
  %12 = load ptr, ptr %11, align 8, !tbaa !686
  %13 = getelementptr inbounds nuw i8, ptr %1, i64 32
  %.val = load ptr, ptr %13, align 8, !tbaa !1041
  %14 = getelementptr inbounds nuw i8, ptr %.val, i64 80
  %15 = getelementptr inbounds nuw i8, ptr %0, i64 16
  %16 = getelementptr inbounds nuw i8, ptr %0, i64 24
  %17 = getelementptr inbounds nuw i8, ptr %0, i64 8
  store i64 0, ptr %17, align 8
  %18 = tail call noalias noundef nonnull dereferenceable(48) ptr @_Znwm(i64 noundef 48) #35
  store ptr %2, ptr %18, align 16, !tbaa !50
  %.sroa.4.0..sroa_idx = getelementptr inbounds nuw i8, ptr %18, i64 8
  store i64 %3, ptr %.sroa.4.0..sroa_idx, align 8, !tbaa !129
  %.sroa.5.0..sroa_idx = getelementptr inbounds nuw i8, ptr %18, i64 16
  store ptr %4, ptr %.sroa.5.0..sroa_idx, align 16, !tbaa !50
  %.sroa.6.0..sroa_idx = getelementptr inbounds nuw i8, ptr %18, i64 24
  store i64 %5, ptr %.sroa.6.0..sroa_idx, align 8, !tbaa !129
  %.sroa.7.0..sroa_idx = getelementptr inbounds nuw i8, ptr %18, i64 32
  store ptr %12, ptr %.sroa.7.0..sroa_idx, align 16, !tbaa !1129
  %.sroa.8.0..sroa_idx = getelementptr inbounds nuw i8, ptr %18, i64 40
  store ptr %14, ptr %.sroa.8.0..sroa_idx, align 8, !tbaa !1130
  store ptr %18, ptr %0, align 8, !tbaa !1132
  store ptr @_ZNSt17_Function_handlerIFbRKN7rocksdb15TablePropertiesEEZNKS0_12experimental12_GLOBAL__N_132SstQueryFilterConfigsManagerImpl9MyFactory27GetTableFilterForRangeQueryENS0_5SliceES9_EUlS3_E_E9_M_invokeERKSt9_Any_dataS3_, ptr %16, align 8, !tbaa !1133
  store ptr @_ZNSt17_Function_handlerIFbRKN7rocksdb15TablePropertiesEEZNKS0_12experimental12_GLOBAL__N_132SstQueryFilterConfigsManagerImpl9MyFactory27GetTableFilterForRangeQueryENS0_5SliceES9_EUlS3_E_E10_M_managerERSt9_Any_dataRKSC_St18_Manager_operation, ptr %15, align 8, !tbaa !127
  ret void
}